; Function Attrs: nounwind uwtable
define ptr @l_Lean_withDeclNameForAuxNaming___rarg(ptr noundef %0, ptr noundef %1, ptr noundef %2, ptr noundef %3, ptr noundef %4) #1 {
  %6 = getelementptr inbounds nuw i8, ptr %0, i64 16
  %7 = load ptr, ptr %6, align 8, !tbaa !9
  %8 = ptrtoint ptr %7 to i64
  %9 = and i64 %8, 1
  %.not = icmp eq i64 %9, 0
  br i1 %.not, label %10, label %lean_inc.exit22

10:                                               ; preds = %5
  %.val.i = load i32, ptr %7, align 4, !tbaa !4
  %11 = icmp sgt i32 %.val.i, 0
  br i1 %11, label %12, label %14, !prof !11

12:                                               ; preds = %10
  %13 = add nuw i32 %.val.i, 1
  store i32 %13, ptr %7, align 4, !tbaa !4
  br label %lean_inc.exit22

14:                                               ; preds = %10
  %.not.i = icmp eq i32 %.val.i, 0
  br i1 %.not.i, label %lean_inc.exit22, label %15

15:                                               ; preds = %14
  tail call void @lean_inc_ref_cold(ptr noundef nonnull %7) #7
  br label %lean_inc.exit22

lean_inc.exit22:                                  ; preds = %15, %14, %12, %5
  %16 = getelementptr inbounds nuw i8, ptr %2, i64 8
  %17 = load ptr, ptr %16, align 8, !tbaa !9
  %18 = ptrtoint ptr %17 to i64
  %19 = and i64 %18, 1
  %.not29 = icmp eq i64 %19, 0
  br i1 %.not29, label %20, label %lean_inc.exit21

20:                                               ; preds = %lean_inc.exit22
  %.val.i23 = load i32, ptr %17, align 4, !tbaa !4
  %21 = icmp sgt i32 %.val.i23, 0
  br i1 %21, label %22, label %24, !prof !11

22:                                               ; preds = %20
  %23 = add nuw i32 %.val.i23, 1
  store i32 %23, ptr %17, align 4, !tbaa !4
  br label %lean_inc.exit21

24:                                               ; preds = %20
  %.not.i24 = icmp eq i32 %.val.i23, 0
  br i1 %.not.i24, label %lean_inc.exit21, label %25

25:                                               ; preds = %24
  tail call void @lean_inc_ref_cold(ptr noundef nonnull %17) #7
  br label %lean_inc.exit21

lean_inc.exit21:                                  ; preds = %25, %24, %22, %lean_inc.exit22
  br i1 %.not, label %26, label %lean_inc.exit

26:                                               ; preds = %lean_inc.exit21
  %.val.i26 = load i32, ptr %7, align 4, !tbaa !4
  %27 = icmp sgt i32 %.val.i26, 0
  br i1 %27, label %28, label %30, !prof !11

28:                                               ; preds = %26
  %29 = add nuw i32 %.val.i26, 1
  store i32 %29, ptr %7, align 4, !tbaa !4
  br label %lean_inc.exit

30:                                               ; preds = %26
  %.not.i27 = icmp eq i32 %.val.i26, 0
  br i1 %.not.i27, label %lean_inc.exit, label %31

31:                                               ; preds = %30
  tail call void @lean_inc_ref_cold(ptr noundef nonnull %7) #7
  br label %lean_inc.exit

lean_inc.exit:                                    ; preds = %31, %30, %28, %lean_inc.exit21
  tail call void @lean_inc_heartbeat() #7
  %32 = tail call noalias ptr @mi_malloc_small(i64 noundef 72) #7
  %33 = icmp eq ptr %32, null
  br i1 %33, label %34, label %lean_alloc_closure.exit

34:                                               ; preds = %lean_inc.exit
  tail call void @lean_internal_panic_out_of_memory() #8
  unreachable

lean_alloc_closure.exit:                          ; preds = %lean_inc.exit
  %35 = getelementptr inbounds nuw i8, ptr %32, i64 4
  store i32 1, ptr %32, align 4, !tbaa !4
  store i32 -184549304, ptr %35, align 4
  %36 = getelementptr inbounds nuw i8, ptr %32, i64 8
  store ptr @l_Lean_withDeclNameForAuxNaming___rarg___lambda__3, ptr %36, align 8, !tbaa !9
  %37 = getelementptr inbounds nuw i8, ptr %32, i64 16
  store i16 7, ptr %37, align 8, !tbaa !15
  %38 = getelementptr inbounds nuw i8, ptr %32, i64 18
  store i16 6, ptr %38, align 2, !tbaa !15
  %39 = getelementptr inbounds nuw i8, ptr %32, i64 24
  store ptr %3, ptr %39, align 8, !tbaa !9
  %40 = getelementptr inbounds nuw i8, ptr %32, i64 32
  store ptr %0, ptr %40, align 8, !tbaa !9
  %41 = getelementptr inbounds nuw i8, ptr %32, i64 40
  store ptr %2, ptr %41, align 8, !tbaa !9
  %42 = getelementptr inbounds nuw i8, ptr %32, i64 48
  store ptr %4, ptr %42, align 8, !tbaa !9
  %43 = getelementptr inbounds nuw i8, ptr %32, i64 56
  store ptr %7, ptr %43, align 8, !tbaa !9
  %44 = getelementptr inbounds nuw i8, ptr %32, i64 64
  store ptr %1, ptr %44, align 8, !tbaa !9
  %45 = tail call ptr @lean_apply_4(ptr noundef %7, ptr noundef nonnull inttoptr (i64 1 to ptr), ptr noundef nonnull inttoptr (i64 1 to ptr), ptr noundef %17, ptr noundef nonnull %32) #7
  ret ptr %45
}